target datalayout = "e-m:e-p270:32:32-p271:32:32-p272:64:64-i64:64-i128:128-f80:128-n8:16:32:64-S128"
target triple = "x86_64-pc-linux-gnu"

; Function Attrs: nounwind uwtable
define internal void @str_strip(ptr noundef %0, ptr noundef %1, ptr noundef %2, i64 noundef %3) #0 {
  %5 = alloca ptr, align 8
  %6 = alloca ptr, align 8
  %7 = alloca ptr, align 8
  %8 = alloca i64, align 8
  %9 = alloca ptr, align 8
  %10 = alloca ptr, align 8
  %11 = alloca ptr, align 8
  %12 = alloca i64, align 8
  %13 = alloca ptr, align 8
  store ptr %0, ptr %5, align 8
  store ptr %1, ptr %6, align 8
  store ptr %2, ptr %7, align 8
  store i64 %3, ptr %8, align 8
  %14 = load ptr, ptr %5, align 8
  %15 = load ptr, ptr %14, align 8
  store ptr %15, ptr %9, align 8
  %16 = load ptr, ptr %6, align 8
  %17 = load ptr, ptr %16, align 8
  store ptr %17, ptr %10, align 8
  %18 = load i64, ptr %8, align 8
  store i64 %18, ptr %12, align 8
  %19 = load ptr, ptr %5, align 8
  %20 = icmp eq ptr %19, null
  br i1 %20, label %25, label %21

21:                                               ; preds = %4
  %22 = load ptr, ptr %10, align 8
  %23 = load ptr, ptr %9, align 8
  %24 = icmp ule ptr %22, %23
  br i1 %24, label %25, label %26

25:                                               ; preds = %21, %4
  br label %142

26:                                               ; preds = %21
  %27 = load ptr, ptr %9, align 8
  %28 = call i64 @strlen(ptr noundef %27) #8
  %29 = load i64, ptr %8, align 8
  %30 = icmp ult i64 %28, %29
  br i1 %30, label %31, label %32

31:                                               ; preds = %26
  br label %142

32:                                               ; preds = %26
  br label %33

33:                                               ; preds = %57, %32
  %34 = load i64, ptr %12, align 8
  %35 = icmp ne i64 %34, 0
  br i1 %35, label %36, label %43

36:                                               ; preds = %33
  %37 = load ptr, ptr %9, align 8
  %38 = load ptr, ptr %7, align 8
  %39 = load i64, ptr %12, align 8
  %40 = call i32 @strncmp(ptr noundef %37, ptr noundef %38, i64 noundef %39) #8
  %41 = icmp ne i32 %40, 0
  %42 = xor i1 %41, true
  br label %43

43:                                               ; preds = %36, %33
  %44 = phi i1 [ false, %33 ], [ %42, %36 ]
  br i1 %44, label %45, label %58

45:                                               ; preds = %43
  %46 = load i64, ptr %8, align 8
  %47 = load ptr, ptr %9, align 8
  %48 = getelementptr inbounds i8, ptr %47, i64 %46
  store ptr %48, ptr %9, align 8
  %49 = load i64, ptr %12, align 8
  %50 = load i64, ptr %8, align 8
  %51 = icmp ugt i64 %49, %50
  br i1 %51, label %52, label %56

52:                                               ; preds = %45
  %53 = load i64, ptr %8, align 8
  %54 = load i64, ptr %12, align 8
  %55 = sub i64 %54, %53
  store i64 %55, ptr %12, align 8
  br label %57

56:                                               ; preds = %45
  store i64 0, ptr %12, align 8
  br label %57

57:                                               ; preds = %56, %52
  br label %33

58:                                               ; preds = %43
  %59 = load i64, ptr %8, align 8
  %60 = load ptr, ptr %10, align 8
  %61 = load ptr, ptr %9, align 8
  %62 = ptrtoint ptr %60 to i64
  %63 = ptrtoint ptr %61 to i64
  %64 = sub i64 %62, %63
  %65 = icmp ule i64 %59, %64
  br i1 %65, label %66, label %94

66:                                               ; preds = %58
  %67 = load ptr, ptr %10, align 8
  %68 = load i64, ptr %8, align 8
  %69 = sub i64 0, %68
  %70 = getelementptr inbounds i8, ptr %67, i64 %69
  %71 = getelementptr inbounds i8, ptr %70, i64 1
  store ptr %71, ptr %11, align 8
  br label %72

72:                                               ; preds = %84, %66
  %73 = load ptr, ptr %11, align 8
  %74 = load ptr, ptr %9, align 8
  %75 = icmp ugt ptr %73, %74
  br i1 %75, label %76, label %82

76:                                               ; preds = %72
  %77 = load ptr, ptr %11, align 8
  %78 = load ptr, ptr %7, align 8
  %79 = load i64, ptr %8, align 8
  %80 = call i32 @strncmp(ptr noundef %77, ptr noundef %78, i64 noundef %79) #8
  %81 = icmp eq i32 %80, 0
  br label %82

82:                                               ; preds = %76, %72
  %83 = phi i1 [ false, %72 ], [ %81, %76 ]
  br i1 %83, label %84, label %93

84:                                               ; preds = %82
  %85 = load i64, ptr %8, align 8
  %86 = load ptr, ptr %10, align 8
  %87 = sub i64 0, %85
  %88 = getelementptr inbounds i8, ptr %86, i64 %87
  store ptr %88, ptr %10, align 8
  %89 = load i64, ptr %8, align 8
  %90 = load ptr, ptr %11, align 8
  %91 = sub i64 0, %89
  %92 = getelementptr inbounds i8, ptr %90, i64 %91
  store ptr %92, ptr %11, align 8
  br label %72

93:                                               ; preds = %82
  br label %94

94:                                               ; preds = %93, %58
  %95 = load ptr, ptr %9, align 8
  %96 = getelementptr inbounds i8, ptr %95, i32 1
  store ptr %96, ptr %9, align 8
  %97 = load ptr, ptr %5, align 8
  store ptr %95, ptr %97, align 8
  br label %98

98:                                               ; preds = %136, %94
  %99 = load ptr, ptr %9, align 8
  %100 = load i64, ptr %8, align 8
  %101 = getelementptr inbounds i8, ptr %99, i64 %100
  %102 = load ptr, ptr %10, align 8
  %103 = icmp ule ptr %101, %102
  br i1 %103, label %104, label %139

104:                                              ; preds = %98
  br label %105

105:                                              ; preds = %120, %104
  %106 = load ptr, ptr %9, align 8
  %107 = load i64, ptr %8, align 8
  %108 = getelementptr inbounds i8, ptr %106, i64 %107
  %109 = load ptr, ptr %10, align 8
  %110 = icmp ule ptr %108, %109
  br i1 %110, label %111, label %118

111:                                              ; preds = %105
  %112 = load ptr, ptr %9, align 8
  %113 = load ptr, ptr %7, align 8
  %114 = load i64, ptr %8, align 8
  %115 = call i32 @strncmp(ptr noundef %112, ptr noundef %113, i64 noundef %114) #8
  %116 = icmp ne i32 %115, 0
  %117 = xor i1 %116, true
  br label %118

118:                                              ; preds = %111, %105
  %119 = phi i1 [ false, %105 ], [ %117, %111 ]
  br i1 %119, label %120, label %136

120:                                              ; preds = %118
  %121 = load ptr, ptr %9, align 8
  %122 = load i64, ptr %8, align 8
  %123 = getelementptr inbounds i8, ptr %121, i64 %122
  store ptr %123, ptr %13, align 8
  %124 = load ptr, ptr %9, align 8
  %125 = load ptr, ptr %13, align 8
  %126 = load ptr, ptr %10, align 8
  %127 = load ptr, ptr %13, align 8
  %128 = ptrtoint ptr %126 to i64
  %129 = ptrtoint ptr %127 to i64
  %130 = sub i64 %128, %129
  %131 = add nsw i64 %130, 1
  call void @llvm.memmove.p0.p0.i64(ptr align 1 %124, ptr align 1 %125, i64 %131, i1 false)
  %132 = load i64, ptr %8, align 8
  %133 = load ptr, ptr %10, align 8
  %134 = sub i64 0, %132
  %135 = getelementptr inbounds i8, ptr %133, i64 %134
  store ptr %135, ptr %10, align 8
  br label %105

136:                                              ; preds = %118
  %137 = load ptr, ptr %9, align 8
  %138 = getelementptr inbounds i8, ptr %137, i32 1
  store ptr %138, ptr %9, align 8
  br label %98

139:                                              ; preds = %98
  %140 = load ptr, ptr %10, align 8
  %141 = load ptr, ptr %6, align 8
  store ptr %140, ptr %141, align 8
  br label %142

142:                                              ; preds = %139, %31, %25
  ret void
}