; Function Attrs: nofree nounwind memory(readwrite, inaccessiblemem: none) uwtable
define internal fastcc void @str_strip(ptr nocapture noundef %0, ptr nocapture noundef %1, ptr nocapture noundef readonly %2, i64 noundef %3) unnamed_addr #11 {
  %5 = load ptr, ptr %0, align 8
  %6 = load ptr, ptr %1, align 8
  %.not = icmp ugt ptr %6, %5
  br i1 %.not, label %7, label %36

7:                                                ; preds = %4
  %8 = tail call i64 @strlen(ptr noundef nonnull dereferenceable(1) %5) #17
  %9 = icmp ult i64 %8, %3
  br i1 %9, label %36, label %select.unfold.preheader

select.unfold.preheader:                          ; preds = %7
  %.not6874 = icmp eq i64 %3, 0
  br i1 %.not6874, label %.critedge, label %.lr.ph.preheader

.lr.ph.preheader:                                 ; preds = %select.unfold.preheader
  %10 = tail call i32 @strncmp(ptr noundef nonnull dereferenceable(1) %5, ptr noundef nonnull dereferenceable(1) %2, i64 noundef %3) #17
  %.not69 = icmp eq i32 %10, 0
  %spec.select.idx = select i1 %.not69, i64 %3, i64 0
  %spec.select = getelementptr inbounds i8, ptr %5, i64 %spec.select.idx
  br label %.critedge

.critedge:                                        ; preds = %.lr.ph.preheader, %select.unfold.preheader
  %.0.lcssa = phi ptr [ %5, %select.unfold.preheader ], [ %spec.select, %.lr.ph.preheader ]
  %11 = ptrtoint ptr %6 to i64
  %12 = ptrtoint ptr %.0.lcssa to i64
  %13 = sub i64 %11, %12
  %.not70 = icmp ult i64 %13, %3
  br i1 %.not70, label %.critedge2, label %14

14:                                               ; preds = %.critedge
  %15 = sub nsw i64 0, %3
  %16 = getelementptr inbounds i8, ptr %6, i64 %15
  %17 = getelementptr inbounds i8, ptr %16, i64 1
  %18 = icmp ugt ptr %17, %.0.lcssa
  br i1 %18, label %.lr.ph80, label %.critedge2

.lr.ph80:                                         ; preds = %14, %21
  %.05979 = phi ptr [ %23, %21 ], [ %17, %14 ]
  %.06078 = phi ptr [ %22, %21 ], [ %6, %14 ]
  %19 = tail call i32 @strncmp(ptr noundef nonnull %.05979, ptr noundef %2, i64 noundef %3) #17
  %20 = icmp eq i32 %19, 0
  br i1 %20, label %21, label %.critedge2

21:                                               ; preds = %.lr.ph80
  %22 = getelementptr inbounds i8, ptr %.06078, i64 %15
  %23 = getelementptr inbounds i8, ptr %.05979, i64 %15
  %24 = icmp ugt ptr %23, %.0.lcssa
  br i1 %24, label %.lr.ph80, label %.critedge2

.critedge2:                                       ; preds = %21, %.lr.ph80, %14, %.critedge
  %.161 = phi ptr [ %6, %.critedge ], [ %6, %14 ], [ %22, %21 ], [ %.06078, %.lr.ph80 ]
  store ptr %.0.lcssa, ptr %0, align 8
  %.185 = getelementptr inbounds i8, ptr %.0.lcssa, i64 1
  %25 = getelementptr inbounds i8, ptr %.185, i64 %3
  %.not7186 = icmp ugt ptr %25, %.161
  br i1 %.not7186, label %._crit_edge, label %.preheader.lr.ph

.preheader.lr.ph:                                 ; preds = %.critedge2
  %26 = sub nsw i64 0, %3
  br label %.preheader

.preheader:                                       ; preds = %.preheader.lr.ph, %.critedge4
  %27 = phi ptr [ %25, %.preheader.lr.ph ], [ %35, %.critedge4 ]
  %.188 = phi ptr [ %.185, %.preheader.lr.ph ], [ %.1, %.critedge4 ]
  %.287 = phi ptr [ %.161, %.preheader.lr.ph ], [ %.3.lcssa, %.critedge4 ]
  %28 = ptrtoint ptr %27 to i64
  br label %29

29:                                               ; preds = %.preheader, %31
  %.384 = phi ptr [ %.287, %.preheader ], [ %34, %31 ]
  %30 = tail call i32 @strncmp(ptr noundef nonnull %.188, ptr noundef %2, i64 noundef %3) #17
  %.not73 = icmp eq i32 %30, 0
  br i1 %.not73, label %31, label %.critedge4

31:                                               ; preds = %29
  %32 = ptrtoint ptr %.384 to i64
  %reass.sub = sub i64 %32, %28
  %33 = add i64 %reass.sub, 1
  tail call void @llvm.memmove.p0.p0.i64(ptr nonnull align 1 %.188, ptr nonnull align 1 %27, i64 %33, i1 false)
  %34 = getelementptr inbounds i8, ptr %.384, i64 %26
  %.not72 = icmp ugt ptr %27, %34
  br i1 %.not72, label %.critedge4, label %29

.critedge4:                                       ; preds = %31, %29
  %.3.lcssa = phi ptr [ %34, %31 ], [ %.384, %29 ]
  %.1 = getelementptr inbounds i8, ptr %.188, i64 1
  %35 = getelementptr inbounds i8, ptr %.1, i64 %3
  %.not71 = icmp ugt ptr %35, %.3.lcssa
  br i1 %.not71, label %._crit_edge, label %.preheader

._crit_edge:                                      ; preds = %.critedge4, %.critedge2
  %.2.lcssa = phi ptr [ %.161, %.critedge2 ], [ %.3.lcssa, %.critedge4 ]
  store ptr %.2.lcssa, ptr %1, align 8
  br label %36

36:                                               ; preds = %7, %4, %._crit_edge
  ret void
}